; Function Attrs: null_pointer_is_valid sspstrong uwtable
define internal i32 @get_lbmpdm_tcp_pdu_length(ptr readnone captures(none) %0, ptr noundef %1, i32 noundef %2, ptr readnone captures(none) %3) #0 {
  %5 = alloca i32, align 4
  %6 = alloca i32, align 4
  call void @llvm.lifetime.start.p0(i64 4, ptr nonnull %5) #7
  call void @llvm.lifetime.start.p0(i64 4, ptr nonnull %6) #7
  store i32 0, ptr %6, align 4
  %7 = call zeroext i1 @lbmpdm_verify_payload(ptr noundef %1, i32 noundef %2, ptr noundef nonnull %5, ptr noundef nonnull %6)
  %.pre = load i32, ptr %6, align 4
  %8 = select i1 %7, i32 %.pre, i32 0
  call void @llvm.lifetime.end.p0(i64 4, ptr nonnull %6) #7
  call void @llvm.lifetime.end.p0(i64 4, ptr nonnull %5) #7
  ret i32 %8
}